target datalayout = "e-m:e-p270:32:32-p271:32:32-p272:64:64-i64:64-i128:128-f80:128-n8:16:32:64-S128"
target triple = "x86_64-pc-linux-gnu"

%class.Ui_LBMLBTRUTransportDialog = type { ptr, ptr, ptr, ptr, ptr, ptr, ptr, ptr, ptr, ptr, ptr, ptr, ptr, ptr, ptr, ptr, ptr, ptr, ptr, ptr, ptr, ptr, ptr, ptr, ptr, ptr, ptr, ptr, ptr, ptr, ptr, ptr, ptr, ptr, ptr, ptr, ptr, ptr, ptr, ptr, ptr, ptr, ptr, ptr, ptr, ptr, ptr, ptr, ptr, ptr, ptr, ptr, ptr, ptr, ptr, ptr, ptr, ptr, ptr, ptr, ptr, ptr, ptr, ptr, ptr, ptr, ptr, ptr, ptr, ptr, ptr, ptr, ptr, ptr, ptr, ptr, ptr, ptr, ptr, ptr, ptr, ptr, ptr, ptr, ptr, ptr, ptr, ptr, ptr, ptr, ptr, ptr }
%class.LBMLBTRUTransportDialog = type { %class.QDialog, ptr, ptr, ptr, ptr, ptr, ptr, ptr, ptr, ptr }
%class.QDialog = type { %class.QWidget }
%class.QWidget = type { %class.QObject, %class.QPaintDevice.base, ptr }
%class.QObject = type { ptr, %class.QScopedPointer }
%class.QScopedPointer = type { ptr }
%class.QPaintDevice.base = type <{ ptr, i16 }>

; Function Attrs: mustprogress null_pointer_is_valid sspstrong uwtable
define void @_ZN23LBMLBTRUTransportDialog41actionReceiverAutoResizeColumns_triggeredEv(ptr noundef align 8 dereferenceable_or_null(112) %0) #0 align 2 {
  %2 = alloca ptr, align 8
  store ptr %0, ptr %2, align 8
  %3 = load ptr, ptr %2, align 8
  %4 = getelementptr inbounds nuw %class.LBMLBTRUTransportDialog, ptr %3, i32 0, i32 1
  %5 = load ptr, ptr %4, align 8
  %6 = getelementptr inbounds nuw %class.Ui_LBMLBTRUTransportDialog, ptr %5, i32 0, i32 71
  %7 = load ptr, ptr %6, align 8
  call void @_ZN9QTreeView22resizeColumnToContentsEi(ptr noundef align 8 dereferenceable_or_null(40) %7, i32 noundef 0)
  %8 = getelementptr inbounds nuw %class.LBMLBTRUTransportDialog, ptr %3, i32 0, i32 1
  %9 = load ptr, ptr %8, align 8
  %10 = getelementptr inbounds nuw %class.Ui_LBMLBTRUTransportDialog, ptr %9, i32 0, i32 71
  %11 = load ptr, ptr %10, align 8
  call void @_ZN9QTreeView22resizeColumnToContentsEi(ptr noundef align 8 dereferenceable_or_null(40) %11, i32 noundef 1)
  %12 = getelementptr inbounds nuw %class.LBMLBTRUTransportDialog, ptr %3, i32 0, i32 1
  %13 = load ptr, ptr %12, align 8
  %14 = getelementptr inbounds nuw %class.Ui_LBMLBTRUTransportDialog, ptr %13, i32 0, i32 71
  %15 = load ptr, ptr %14, align 8
  call void @_ZN9QTreeView22resizeColumnToContentsEi(ptr noundef align 8 dereferenceable_or_null(40) %15, i32 noundef 2)
  %16 = getelementptr inbounds nuw %class.LBMLBTRUTransportDialog, ptr %3, i32 0, i32 1
  %17 = load ptr, ptr %16, align 8
  %18 = getelementptr inbounds nuw %class.Ui_LBMLBTRUTransportDialog, ptr %17, i32 0, i32 71
  %19 = load ptr, ptr %18, align 8
  call void @_ZN9QTreeView22resizeColumnToContentsEi(ptr noundef align 8 dereferenceable_or_null(40) %19, i32 noundef 3)
  %20 = getelementptr inbounds nuw %class.LBMLBTRUTransportDialog, ptr %3, i32 0, i32 1
  %21 = load ptr, ptr %20, align 8
  %22 = getelementptr inbounds nuw %class.Ui_LBMLBTRUTransportDialog, ptr %21, i32 0, i32 71
  %23 = load ptr, ptr %22, align 8
  call void @_ZN9QTreeView22resizeColumnToContentsEi(ptr noundef align 8 dereferenceable_or_null(40) %23, i32 noundef 6)
  %24 = getelementptr inbounds nuw %class.LBMLBTRUTransportDialog, ptr %3, i32 0, i32 1
  %25 = load ptr, ptr %24, align 8
  %26 = getelementptr inbounds nuw %class.Ui_LBMLBTRUTransportDialog, ptr %25, i32 0, i32 71
  %27 = load ptr, ptr %26, align 8
  call void @_ZN9QTreeView22resizeColumnToContentsEi(ptr noundef align 8 dereferenceable_or_null(40) %27, i32 noundef 5)
  %28 = getelementptr inbounds nuw %class.LBMLBTRUTransportDialog, ptr %3, i32 0, i32 1
  %29 = load ptr, ptr %28, align 8
  %30 = getelementptr inbounds nuw %class.Ui_LBMLBTRUTransportDialog, ptr %29, i32 0, i32 71
  %31 = load ptr, ptr %30, align 8
  call void @_ZN9QTreeView22resizeColumnToContentsEi(ptr noundef align 8 dereferenceable_or_null(40) %31, i32 noundef 4)
  %32 = getelementptr inbounds nuw %class.LBMLBTRUTransportDialog, ptr %3, i32 0, i32 1
  %33 = load ptr, ptr %32, align 8
  %34 = getelementptr inbounds nuw %class.Ui_LBMLBTRUTransportDialog, ptr %33, i32 0, i32 71
  %35 = load ptr, ptr %34, align 8
  call void @_ZN9QTreeView22resizeColumnToContentsEi(ptr noundef align 8 dereferenceable_or_null(40) %35, i32 noundef 7)
  %36 = getelementptr inbounds nuw %class.LBMLBTRUTransportDialog, ptr %3, i32 0, i32 1
  %37 = load ptr, ptr %36, align 8
  %38 = getelementptr inbounds nuw %class.Ui_LBMLBTRUTransportDialog, ptr %37, i32 0, i32 71
  %39 = load ptr, ptr %38, align 8
  call void @_ZN9QTreeView22resizeColumnToContentsEi(ptr noundef align 8 dereferenceable_or_null(40) %39, i32 noundef 8)
  %40 = getelementptr inbounds nuw %class.LBMLBTRUTransportDialog, ptr %3, i32 0, i32 1
  %41 = load ptr, ptr %40, align 8
  %42 = getelementptr inbounds nuw %class.Ui_LBMLBTRUTransportDialog, ptr %41, i32 0, i32 71
  %43 = load ptr, ptr %42, align 8
  call void @_ZN9QTreeView22resizeColumnToContentsEi(ptr noundef align 8 dereferenceable_or_null(40) %43, i32 noundef 9)
  %44 = getelementptr inbounds nuw %class.LBMLBTRUTransportDialog, ptr %3, i32 0, i32 1
  %45 = load ptr, ptr %44, align 8
  %46 = getelementptr inbounds nuw %class.Ui_LBMLBTRUTransportDialog, ptr %45, i32 0, i32 71
  %47 = load ptr, ptr %46, align 8
  call void @_ZN9QTreeView22resizeColumnToContentsEi(ptr noundef align 8 dereferenceable_or_null(40) %47, i32 noundef 10)
  %48 = getelementptr inbounds nuw %class.LBMLBTRUTransportDialog, ptr %3, i32 0, i32 1
  %49 = load ptr, ptr %48, align 8
  %50 = getelementptr inbounds nuw %class.Ui_LBMLBTRUTransportDialog, ptr %49, i32 0, i32 71
  %51 = load ptr, ptr %50, align 8
  call void @_ZN9QTreeView22resizeColumnToContentsEi(ptr noundef align 8 dereferenceable_or_null(40) %51, i32 noundef 11)
  %52 = getelementptr inbounds nuw %class.LBMLBTRUTransportDialog, ptr %3, i32 0, i32 1
  %53 = load ptr, ptr %52, align 8
  %54 = getelementptr inbounds nuw %class.Ui_LBMLBTRUTransportDialog, ptr %53, i32 0, i32 71
  %55 = load ptr, ptr %54, align 8
  call void @_ZN9QTreeView22resizeColumnToContentsEi(ptr noundef align 8 dereferenceable_or_null(40) %55, i32 noundef 12)
  %56 = getelementptr inbounds nuw %class.LBMLBTRUTransportDialog, ptr %3, i32 0, i32 1
  %57 = load ptr, ptr %56, align 8
  %58 = getelementptr inbounds nuw %class.Ui_LBMLBTRUTransportDialog, ptr %57, i32 0, i32 71
  %59 = load ptr, ptr %58, align 8
  call void @_ZN9QTreeView22resizeColumnToContentsEi(ptr noundef align 8 dereferenceable_or_null(40) %59, i32 noundef 13)
  %60 = getelementptr inbounds nuw %class.LBMLBTRUTransportDialog, ptr %3, i32 0, i32 1
  %61 = load ptr, ptr %60, align 8
  %62 = getelementptr inbounds nuw %class.Ui_LBMLBTRUTransportDialog, ptr %61, i32 0, i32 71
  %63 = load ptr, ptr %62, align 8
  call void @_ZN9QTreeView22resizeColumnToContentsEi(ptr noundef align 8 dereferenceable_or_null(40) %63, i32 noundef 14)
  %64 = getelementptr inbounds nuw %class.LBMLBTRUTransportDialog, ptr %3, i32 0, i32 1
  %65 = load ptr, ptr %64, align 8
  %66 = getelementptr inbounds nuw %class.Ui_LBMLBTRUTransportDialog, ptr %65, i32 0, i32 71
  %67 = load ptr, ptr %66, align 8
  call void @_ZN9QTreeView22resizeColumnToContentsEi(ptr noundef align 8 dereferenceable_or_null(40) %67, i32 noundef 15)
  %68 = getelementptr inbounds nuw %class.LBMLBTRUTransportDialog, ptr %3, i32 0, i32 1
  %69 = load ptr, ptr %68, align 8
  %70 = getelementptr inbounds nuw %class.Ui_LBMLBTRUTransportDialog, ptr %69, i32 0, i32 71
  %71 = load ptr, ptr %70, align 8
  call void @_ZN9QTreeView22resizeColumnToContentsEi(ptr noundef align 8 dereferenceable_or_null(40) %71, i32 noundef 16)
  ret void
}