; Function Attrs: mustprogress null_pointer_is_valid sspstrong uwtable
define void @_ZN23LBMLBTRUTransportDialog41actionReceiverAutoResizeColumns_triggeredEv(ptr noundef readonly align 8 captures(none) dereferenceable_or_null(112) %0) local_unnamed_addr #0 align 2 {
  %2 = getelementptr inbounds nuw i8, ptr %0, i64 40
  %3 = load ptr, ptr %2, align 8
  %4 = getelementptr inbounds nuw i8, ptr %3, i64 568
  %5 = load ptr, ptr %4, align 8
  tail call void @_ZN9QTreeView22resizeColumnToContentsEi(ptr noundef align 8 dereferenceable_or_null(40) %5, i32 noundef 0)
  %6 = load ptr, ptr %2, align 8
  %7 = getelementptr inbounds nuw i8, ptr %6, i64 568
  %8 = load ptr, ptr %7, align 8
  tail call void @_ZN9QTreeView22resizeColumnToContentsEi(ptr noundef align 8 dereferenceable_or_null(40) %8, i32 noundef 1)
  %9 = load ptr, ptr %2, align 8
  %10 = getelementptr inbounds nuw i8, ptr %9, i64 568
  %11 = load ptr, ptr %10, align 8
  tail call void @_ZN9QTreeView22resizeColumnToContentsEi(ptr noundef align 8 dereferenceable_or_null(40) %11, i32 noundef 2)
  %12 = load ptr, ptr %2, align 8
  %13 = getelementptr inbounds nuw i8, ptr %12, i64 568
  %14 = load ptr, ptr %13, align 8
  tail call void @_ZN9QTreeView22resizeColumnToContentsEi(ptr noundef align 8 dereferenceable_or_null(40) %14, i32 noundef 3)
  %15 = load ptr, ptr %2, align 8
  %16 = getelementptr inbounds nuw i8, ptr %15, i64 568
  %17 = load ptr, ptr %16, align 8
  tail call void @_ZN9QTreeView22resizeColumnToContentsEi(ptr noundef align 8 dereferenceable_or_null(40) %17, i32 noundef 6)
  %18 = load ptr, ptr %2, align 8
  %19 = getelementptr inbounds nuw i8, ptr %18, i64 568
  %20 = load ptr, ptr %19, align 8
  tail call void @_ZN9QTreeView22resizeColumnToContentsEi(ptr noundef align 8 dereferenceable_or_null(40) %20, i32 noundef 5)
  %21 = load ptr, ptr %2, align 8
  %22 = getelementptr inbounds nuw i8, ptr %21, i64 568
  %23 = load ptr, ptr %22, align 8
  tail call void @_ZN9QTreeView22resizeColumnToContentsEi(ptr noundef align 8 dereferenceable_or_null(40) %23, i32 noundef 4)
  %24 = load ptr, ptr %2, align 8
  %25 = getelementptr inbounds nuw i8, ptr %24, i64 568
  %26 = load ptr, ptr %25, align 8
  tail call void @_ZN9QTreeView22resizeColumnToContentsEi(ptr noundef align 8 dereferenceable_or_null(40) %26, i32 noundef 7)
  %27 = load ptr, ptr %2, align 8
  %28 = getelementptr inbounds nuw i8, ptr %27, i64 568
  %29 = load ptr, ptr %28, align 8
  tail call void @_ZN9QTreeView22resizeColumnToContentsEi(ptr noundef align 8 dereferenceable_or_null(40) %29, i32 noundef 8)
  %30 = load ptr, ptr %2, align 8
  %31 = getelementptr inbounds nuw i8, ptr %30, i64 568
  %32 = load ptr, ptr %31, align 8
  tail call void @_ZN9QTreeView22resizeColumnToContentsEi(ptr noundef align 8 dereferenceable_or_null(40) %32, i32 noundef 9)
  %33 = load ptr, ptr %2, align 8
  %34 = getelementptr inbounds nuw i8, ptr %33, i64 568
  %35 = load ptr, ptr %34, align 8
  tail call void @_ZN9QTreeView22resizeColumnToContentsEi(ptr noundef align 8 dereferenceable_or_null(40) %35, i32 noundef 10)
  %36 = load ptr, ptr %2, align 8
  %37 = getelementptr inbounds nuw i8, ptr %36, i64 568
  %38 = load ptr, ptr %37, align 8
  tail call void @_ZN9QTreeView22resizeColumnToContentsEi(ptr noundef align 8 dereferenceable_or_null(40) %38, i32 noundef 11)
  %39 = load ptr, ptr %2, align 8
  %40 = getelementptr inbounds nuw i8, ptr %39, i64 568
  %41 = load ptr, ptr %40, align 8
  tail call void @_ZN9QTreeView22resizeColumnToContentsEi(ptr noundef align 8 dereferenceable_or_null(40) %41, i32 noundef 12)
  %42 = load ptr, ptr %2, align 8
  %43 = getelementptr inbounds nuw i8, ptr %42, i64 568
  %44 = load ptr, ptr %43, align 8
  tail call void @_ZN9QTreeView22resizeColumnToContentsEi(ptr noundef align 8 dereferenceable_or_null(40) %44, i32 noundef 13)
  %45 = load ptr, ptr %2, align 8
  %46 = getelementptr inbounds nuw i8, ptr %45, i64 568
  %47 = load ptr, ptr %46, align 8
  tail call void @_ZN9QTreeView22resizeColumnToContentsEi(ptr noundef align 8 dereferenceable_or_null(40) %47, i32 noundef 14)
  %48 = load ptr, ptr %2, align 8
  %49 = getelementptr inbounds nuw i8, ptr %48, i64 568
  %50 = load ptr, ptr %49, align 8
  tail call void @_ZN9QTreeView22resizeColumnToContentsEi(ptr noundef align 8 dereferenceable_or_null(40) %50, i32 noundef 15)
  %51 = load ptr, ptr %2, align 8
  %52 = getelementptr inbounds nuw i8, ptr %51, i64 568
  %53 = load ptr, ptr %52, align 8
  tail call void @_ZN9QTreeView22resizeColumnToContentsEi(ptr noundef align 8 dereferenceable_or_null(40) %53, i32 noundef 16)
  ret void
}